; Function Attrs: mustprogress uwtable
define noundef zeroext i1 @_ZNK7xgboost11JsonBooleaneqERKNS_5ValueE(ptr noundef nonnull readonly align 8 captures(none) dereferenceable(25) %0, ptr noundef nonnull align 8 dereferenceable(24) %1) unnamed_addr #3 align 2 {
  %3 = getelementptr inbounds nuw i8, ptr %1, i64 16
  %4 = load i64, ptr %3, align 8, !tbaa !8
  %5 = icmp eq i64 %4, 5
  br i1 %5, label %6, label %13

6:                                                ; preds = %2
  %7 = getelementptr inbounds nuw i8, ptr %0, i64 24
  %8 = load i8, ptr %7, align 8, !tbaa !320, !range !228, !noundef !229
  %9 = tail call noundef ptr @_ZN7xgboost4CastIKNS_11JsonBooleanEKNS_5ValueEEEPT_PT0_(ptr noundef nonnull %1)
  %10 = getelementptr inbounds nuw i8, ptr %9, i64 24
  %11 = load i8, ptr %10, align 1, !tbaa !226, !range !228, !noundef !229
  %12 = icmp eq i8 %8, %11
  br label %13

13:                                               ; preds = %2, %6
  %.0 = phi i1 [ %12, %6 ], [ false, %2 ]
  ret i1 %.0
}